; Function Attrs: mustprogress uwtable
define hidden noundef zeroext i1 @_ZN18OpenImageIO_v2_6_08TGAInput5closeEv(ptr noundef nonnull align 8 dereferenceable(312) %this) unnamed_addr #5 align 2 {
entry:
  %m_buf.i = getelementptr inbounds i8, ptr %this, i64 304
  %0 = load ptr, ptr %m_buf.i, align 8
  store ptr null, ptr %m_buf.i, align 8
  %tobool.not.i.i.i.i = icmp eq ptr %0, null
  br i1 %tobool.not.i.i.i.i, label %_ZN18OpenImageIO_v2_6_08TGAInput4initEv.exit, label %_ZNKSt14default_deleteIA_hEclIhEENSt9enable_ifIXsr14is_convertibleIPA_T_PS0_EE5valueEvE4typeEPS4_.exit.i.i.i.i

_ZNKSt14default_deleteIA_hEclIhEENSt9enable_ifIXsr14is_convertibleIPA_T_PS0_EE5valueEvE4typeEPS4_.exit.i.i.i.i: ; preds = %entry
  tail call void @_ZdaPv(ptr noundef nonnull %0) #25
  br label %_ZN18OpenImageIO_v2_6_08TGAInput4initEv.exit

_ZN18OpenImageIO_v2_6_08TGAInput4initEv.exit:     ; preds = %entry, %_ZNKSt14default_deleteIA_hEclIhEENSt9enable_ifIXsr14is_convertibleIPA_T_PS0_EE5valueEvE4typeEPS4_.exit.i.i.i.i
  %m_ofs_thumb.i = getelementptr inbounds i8, ptr %this, i64 272
  %m_alpha_type.i = getelementptr inbounds i8, ptr %this, i64 264
  store i32 0, ptr %m_alpha_type.i, align 8
  %m_tga_version.i = getelementptr inbounds i8, ptr %this, i64 298
  tail call void @llvm.memset.p0.i64(ptr noundef nonnull align 8 dereferenceable(25) %m_ofs_thumb.i, i8 0, i64 25, i1 false)
  store i16 1, ptr %m_tga_version.i, align 2
  tail call void @_ZN18OpenImageIO_v2_6_010ImageInput13ioproxy_clearEv(ptr noundef nonnull align 8 dereferenceable(184) %this)
  ret i1 true
}